target datalayout = "e-m:e-p270:32:32-p271:32:32-p272:64:64-i64:64-i128:128-f80:128-n8:16:32:64-S128"
target triple = "x86_64-pc-linux-gnu"

; Function Attrs: mustprogress nounwind uwtable
define i32 @cvErrorFromIppStatus(i32 noundef %0) #5 {
  %2 = alloca i32, align 4
  %3 = alloca i32, align 4
  store i32 %0, ptr %3, align 4, !tbaa !29
  %4 = load i32, ptr %3, align 4, !tbaa !29
  switch i32 %4, label %25 [
    i32 -1, label %5
    i32 -113, label %6
    i32 -2, label %7
    i32 -11, label %8
    i32 -29, label %9
    i32 -3, label %10
    i32 -49, label %11
    i32 -48, label %12
    i32 -112, label %13
    i32 -110, label %14
    i32 -109, label %15
    i32 -107, label %16
    i32 -104, label %17
    i32 -103, label %18
    i32 -102, label %19
    i32 -12, label %20
    i32 -44, label %21
    i32 -10, label %22
    i32 -7, label %23
    i32 -6, label %24
  ]

5:                                                ; preds = %1
  store i32 -201, ptr %2, align 4
  br label %26

6:                                                ; preds = %1
  store i32 -214, ptr %2, align 4
  br label %26

7:                                                ; preds = %1
  store i32 -27, ptr %2, align 4
  br label %26

8:                                                ; preds = %1
  store i32 -202, ptr %2, align 4
  br label %26

9:                                                ; preds = %1
  store i32 -13, ptr %2, align 4
  br label %26

10:                                               ; preds = %1
  store i32 -4, ptr %2, align 4
  br label %26

11:                                               ; preds = %1
  store i32 -5, ptr %2, align 4
  br label %26

12:                                               ; preds = %1
  store i32 -2, ptr %2, align 4
  br label %26

13:                                               ; preds = %1
  store i32 -203, ptr %2, align 4
  br label %26

14:                                               ; preds = %1
  store i32 -204, ptr %2, align 4
  br label %26

15:                                               ; preds = %1
  store i32 -7, ptr %2, align 4
  br label %26

16:                                               ; preds = %1
  store i32 -17, ptr %2, align 4
  br label %26

17:                                               ; preds = %1
  store i32 -205, ptr %2, align 4
  br label %26

18:                                               ; preds = %1
  store i32 -24, ptr %2, align 4
  br label %26

19:                                               ; preds = %1
  store i32 -15, ptr %2, align 4
  br label %26

20:                                               ; preds = %1
  store i32 -206, ptr %2, align 4
  br label %26

21:                                               ; preds = %1
  store i32 -5, ptr %2, align 4
  br label %26

22:                                               ; preds = %1
  store i32 -5, ptr %2, align 4
  br label %26

23:                                               ; preds = %1
  store i32 -5, ptr %2, align 4
  br label %26

24:                                               ; preds = %1
  store i32 -207, ptr %2, align 4
  br label %26

25:                                               ; preds = %1
  store i32 -2, ptr %2, align 4
  br label %26

26:                                               ; preds = %25, %24, %23, %22, %21, %20, %19, %18, %17, %16, %15, %14, %13, %12, %11, %10, %9, %8, %7, %6, %5
  %27 = load i32, ptr %2, align 4
  ret i32 %27
}