; Function Attrs: mustprogress nofree norecurse nosync nounwind willreturn memory(none) uwtable
define range(i32 -214, -1) i32 @cvErrorFromIppStatus(i32 noundef %0) local_unnamed_addr #17 {
  switch i32 %0, label %17 [
    i32 -1, label %18
    i32 -113, label %2
    i32 -2, label %3
    i32 -11, label %4
    i32 -29, label %5
    i32 -3, label %6
    i32 -49, label %7
    i32 -6, label %16
    i32 -112, label %8
    i32 -110, label %9
    i32 -109, label %10
    i32 -107, label %11
    i32 -104, label %12
    i32 -103, label %13
    i32 -102, label %14
    i32 -12, label %15
    i32 -44, label %7
    i32 -10, label %7
    i32 -7, label %7
  ]

2:                                                ; preds = %1
  br label %18

3:                                                ; preds = %1
  br label %18

4:                                                ; preds = %1
  br label %18

5:                                                ; preds = %1
  br label %18

6:                                                ; preds = %1
  br label %18

7:                                                ; preds = %1, %1, %1, %1
  br label %18

8:                                                ; preds = %1
  br label %18

9:                                                ; preds = %1
  br label %18

10:                                               ; preds = %1
  br label %18

11:                                               ; preds = %1
  br label %18

12:                                               ; preds = %1
  br label %18

13:                                               ; preds = %1
  br label %18

14:                                               ; preds = %1
  br label %18

15:                                               ; preds = %1
  br label %18

16:                                               ; preds = %1
  br label %18

17:                                               ; preds = %1
  br label %18

18:                                               ; preds = %1, %17, %16, %15, %14, %13, %12, %11, %10, %9, %8, %7, %6, %5, %4, %3, %2
  %.0 = phi i32 [ -2, %17 ], [ -207, %16 ], [ -206, %15 ], [ -15, %14 ], [ -24, %13 ], [ -205, %12 ], [ -17, %11 ], [ -7, %10 ], [ -204, %9 ], [ -203, %8 ], [ -5, %7 ], [ -4, %6 ], [ -13, %5 ], [ -202, %4 ], [ -27, %3 ], [ -214, %2 ], [ -201, %1 ]
  ret i32 %.0
}